; Function Attrs: mustprogress nounwind uwtable
define dso_local noundef i64 @_ZN4node18SnapshotSerializer5WriteINS_11performance16PerformanceState13SerializeInfoETnPNSt9enable_ifIXntsr3std7is_sameIT_NSt7__cxx1112basic_stringIcSt11char_traitsIcESaIcEEEEE5valueEvE4typeELPv0ETnPNS5_IXntsr3std13is_arithmeticIS6_EE5valueEvE4typeELSG_0EEEmRKS6_(ptr noundef nonnull align 8 dereferenceable(32) %this, ptr noundef nonnull align 8 dereferenceable(24) %data) local_unnamed_addr #3 align 2 {
entry:
  %ss.i = alloca %"class.std::__cxx11::basic_stringstream", align 8
  %str = alloca %"class.std::__cxx11::basic_string", align 8
  %ref.tmp = alloca ptr, align 8
  %written_total = alloca i64, align 8
  %0 = load i8, ptr %this, align 8
  %1 = and i8 %0, 1
  %tobool.not = icmp eq i8 %1, 0
  br i1 %tobool.not, label %if.end, label %if.then

if.then:                                          ; preds = %entry
  call void @llvm.lifetime.start.p0(i64 392, ptr nonnull %ss.i)
  call void @_ZNSt7__cxx1118basic_stringstreamIcSt11char_traitsIcESaIcEEC1Ev(ptr noundef nonnull align 8 dereferenceable(128) %ss.i) #23, !noalias !157
  %add.ptr.i = getelementptr inbounds i8, ptr %ss.i, i64 16
  %call.i = call noundef nonnull align 8 dereferenceable(8) ptr @_ZN4node11performancelsERSoRKNS0_16PerformanceState13SerializeInfoE(ptr noundef nonnull align 8 dereferenceable(8) %add.ptr.i, ptr noundef nonnull align 8 dereferenceable(24) %data) #23, !noalias !157
  call void @_ZNKSt7__cxx1118basic_stringstreamIcSt11char_traitsIcESaIcEE3strEv(ptr nonnull sret(%"class.std::__cxx11::basic_string") align 8 %str, ptr noundef nonnull align 8 dereferenceable(128) %ss.i) #23
  call void @_ZNSt7__cxx1118basic_stringstreamIcSt11char_traitsIcESaIcEED1Ev(ptr noundef nonnull align 8 dereferenceable(128) %ss.i) #23
  call void @llvm.lifetime.end.p0(i64 392, ptr nonnull %ss.i)
  %call = call noundef ptr @_ZNKSt7__cxx1112basic_stringIcSt11char_traitsIcESaIcEE5c_strEv(ptr noundef nonnull align 8 dereferenceable(32) %str) #23
  store ptr %call, ptr %ref.tmp, align 8
  %2 = load i8, ptr %this, align 8
  %3 = and i8 %2, 1
  %tobool.not.i = icmp eq i8 %3, 0
  br i1 %tobool.not.i, label %_ZNK4node26BlobSerializerDeserializer5DebugIJPKcEEEvS3_DpOT_.exit, label %if.then.i

if.then.i:                                        ; preds = %if.then
  %4 = load ptr, ptr @stderr, align 8
  call void @_ZN4node7FPrintFIJPKcEEEvP8_IO_FILES2_DpOT_(ptr noundef %4, ptr noundef nonnull @.str.66, ptr noundef nonnull align 8 dereferenceable(8) %ref.tmp) #24
  br label %_ZNK4node26BlobSerializerDeserializer5DebugIJPKcEEEvS3_DpOT_.exit

_ZNK4node26BlobSerializerDeserializer5DebugIJPKcEEEvS3_DpOT_.exit: ; preds = %if.then, %if.then.i
  call void @_ZNSt7__cxx1112basic_stringIcSt11char_traitsIcESaIcEED1Ev(ptr noundef nonnull align 8 dereferenceable(32) %str) #23
  br label %if.end

if.end:                                           ; preds = %_ZNK4node26BlobSerializerDeserializer5DebugIJPKcEEEvS3_DpOT_.exit, %entry
  %call.i4 = call noundef i64 @_ZN4node14BlobSerializerINS_18SnapshotSerializerEE15WriteArithmeticImEEmPKT_m(ptr noundef nonnull align 8 dereferenceable(32) %this, ptr noundef nonnull %data, i64 noundef 1)
  %milestones = getelementptr inbounds i8, ptr %data, i64 8
  %call.i5 = call noundef i64 @_ZN4node14BlobSerializerINS_18SnapshotSerializerEE15WriteArithmeticImEEmPKT_m(ptr noundef nonnull align 8 dereferenceable(32) %this, ptr noundef nonnull %milestones, i64 noundef 1)
  %add = add i64 %call.i4, %call.i5
  %observers = getelementptr inbounds i8, ptr %data, i64 16
  %call.i6 = call noundef i64 @_ZN4node14BlobSerializerINS_18SnapshotSerializerEE15WriteArithmeticImEEmPKT_m(ptr noundef nonnull align 8 dereferenceable(32) %this, ptr noundef nonnull %observers, i64 noundef 1)
  %add5 = add i64 %add, %call.i6
  store i64 %add5, ptr %written_total, align 8
  %5 = load i8, ptr %this, align 8
  %6 = and i8 %5, 1
  %tobool.not.i7 = icmp eq i8 %6, 0
  br i1 %tobool.not.i7, label %_ZNK4node26BlobSerializerDeserializer5DebugIJRmEEEvPKcDpOT_.exit, label %if.then.i8

if.then.i8:                                       ; preds = %if.end
  %7 = load ptr, ptr @stderr, align 8
  call void @_ZN4node7FPrintFIJRmEEEvP8_IO_FILEPKcDpOT_(ptr noundef %7, ptr noundef nonnull @.str.67, ptr noundef nonnull align 8 dereferenceable(8) %written_total) #24
  %.pre = load i64, ptr %written_total, align 8
  br label %_ZNK4node26BlobSerializerDeserializer5DebugIJRmEEEvPKcDpOT_.exit

_ZNK4node26BlobSerializerDeserializer5DebugIJRmEEEvPKcDpOT_.exit: ; preds = %if.end, %if.then.i8
  %8 = phi i64 [ %add5, %if.end ], [ %.pre, %if.then.i8 ]
  ret i64 %8
}